target datalayout = "e-m:e-p270:32:32-p271:32:32-p272:64:64-i64:64-i128:128-f80:128-n8:16:32:64-S128"
target triple = "x86_64-pc-linux-gnu"

%"class.LIEF::ELF::CoreAuxv" = type { %"class.LIEF::ELF::Note", i32, i32 }
%"class.LIEF::ELF::Note" = type { %"class.LIEF::Object", %"class.std::__cxx11::basic_string", i32, i32, %"class.std::vector", %"class.std::__cxx11::basic_string" }
%"class.LIEF::Object" = type { ptr }
%"class.std::vector" = type { %"struct.std::_Vector_base" }
%"struct.std::_Vector_base" = type { %"struct.std::_Vector_base<unsigned char, std::allocator<unsigned char>>::_Vector_impl" }
%"struct.std::_Vector_base<unsigned char, std::allocator<unsigned char>>::_Vector_impl" = type { %"struct.std::_Vector_base<unsigned char, std::allocator<unsigned char>>::_Vector_impl_data" }
%"struct.std::_Vector_base<unsigned char, std::allocator<unsigned char>>::_Vector_impl_data" = type { ptr, ptr, ptr }
%"class.std::__cxx11::basic_string" = type { %"struct.std::__cxx11::basic_string<char>::_Alloc_hider", i64, %union.anon.0 }
%"struct.std::__cxx11::basic_string<char>::_Alloc_hider" = type { ptr }
%union.anon.0 = type { i64, [8 x i8] }
%"class.std::map" = type { %"class.std::_Rb_tree" }
%"class.std::_Rb_tree" = type { %"struct.std::_Rb_tree<LIEF::ELF::CoreAuxv::TYPE, std::pair<const LIEF::ELF::CoreAuxv::TYPE, unsigned long>, std::_Select1st<std::pair<const LIEF::ELF::CoreAuxv::TYPE, unsigned long>>, std::less<LIEF::ELF::CoreAuxv::TYPE>>::_Rb_tree_impl" }
%"struct.std::_Rb_tree<LIEF::ELF::CoreAuxv::TYPE, std::pair<const LIEF::ELF::CoreAuxv::TYPE, unsigned long>, std::_Select1st<std::pair<const LIEF::ELF::CoreAuxv::TYPE, unsigned long>>, std::less<LIEF::ELF::CoreAuxv::TYPE>>::_Rb_tree_impl" = type { [8 x i8], %"struct.std::_Rb_tree_header" }
%"struct.std::_Rb_tree_header" = type { %"struct.std::_Rb_tree_node_base", i64 }
%"struct.std::_Rb_tree_node_base" = type { i32, ptr, ptr, ptr }

; Function Attrs: mustprogress nounwind uwtable
define void @_ZNK4LIEF3ELF8CoreAuxv6valuesEv(ptr dead_on_unwind noalias writable sret(%"class.std::map") align 8 %0, ptr noundef nonnull align 8 dereferenceable(112) %1) #0 align 2 {
  %3 = alloca ptr, align 8
  %4 = alloca ptr, align 8
  store ptr %0, ptr %3, align 8
  store ptr %1, ptr %4, align 8, !tbaa !3
  %5 = load ptr, ptr %4, align 8
  %6 = getelementptr inbounds nuw %"class.LIEF::ELF::CoreAuxv", ptr %5, i32 0, i32 2
  %7 = load i32, ptr %6, align 4, !tbaa !10
  %8 = icmp eq i32 %7, 1
  br i1 %8, label %9, label %11

9:                                                ; preds = %2
  %10 = getelementptr inbounds nuw %"class.LIEF::ELF::Note", ptr %5, i32 0, i32 4
  call void @_ZN4LIEF3ELF15get_values_implINS0_7details5ELF32EEESt3mapINS0_8CoreAuxv4TYPEEmSt4lessIS6_ESaISt4pairIKS6_mEEERKSt6vectorIhSaIhEE(ptr dead_on_unwind writable sret(%"class.std::map") align 8 %0, ptr noundef nonnull align 8 dereferenceable(24) %10)
  br label %13

11:                                               ; preds = %2
  %12 = getelementptr inbounds nuw %"class.LIEF::ELF::Note", ptr %5, i32 0, i32 4
  call void @_ZN4LIEF3ELF15get_values_implINS0_7details5ELF64EEESt3mapINS0_8CoreAuxv4TYPEEmSt4lessIS6_ESaISt4pairIKS6_mEEERKSt6vectorIhSaIhEE(ptr dead_on_unwind writable sret(%"class.std::map") align 8 %0, ptr noundef nonnull align 8 dereferenceable(24) %12)
  br label %13

13:                                               ; preds = %11, %9
  ret void
}