; Function Attrs: mustprogress nounwind uwtable
define void @_ZNK4LIEF3ELF8CoreAuxv6valuesEv(ptr dead_on_unwind noalias writable sret(%"class.std::map") align 8 %0, ptr noundef nonnull align 8 dereferenceable(112) %1) local_unnamed_addr #0 align 2 {
  %3 = getelementptr inbounds nuw i8, ptr %1, i64 108
  %4 = load i32, ptr %3, align 4, !tbaa !3
  %5 = icmp eq i32 %4, 1
  %6 = getelementptr inbounds nuw i8, ptr %1, i64 48
  br i1 %5, label %7, label %8

7:                                                ; preds = %2
  tail call void @_ZN4LIEF3ELF15get_values_implINS0_7details5ELF32EEESt3mapINS0_8CoreAuxv4TYPEEmSt4lessIS6_ESaISt4pairIKS6_mEEERKSt6vectorIhSaIhEE(ptr dead_on_unwind writable sret(%"class.std::map") align 8 %0, ptr noundef nonnull align 8 dereferenceable(24) %6)
  br label %9

8:                                                ; preds = %2
  tail call void @_ZN4LIEF3ELF15get_values_implINS0_7details5ELF64EEESt3mapINS0_8CoreAuxv4TYPEEmSt4lessIS6_ESaISt4pairIKS6_mEEERKSt6vectorIhSaIhEE(ptr dead_on_unwind writable sret(%"class.std::map") align 8 %0, ptr noundef nonnull align 8 dereferenceable(24) %6)
  br label %9

9:                                                ; preds = %8, %7
  ret void
}